target datalayout = "e-m:e-p270:32:32-p271:32:32-p272:64:64-i64:64-i128:128-f80:128-n8:16:32:64-S128"
target triple = "x86_64-pc-linux-gnu"

%struct._ssldecrypt_assoc_t = type { ptr, ptr, ptr, ptr, ptr }

; Function Attrs: null_pointer_is_valid sspstrong uwtable
define internal void @ssldecrypt_free_cb(ptr noundef %0) #0 {
  %2 = alloca ptr, align 8
  %3 = alloca ptr, align 8
  store ptr %0, ptr %2, align 8
  call void @llvm.lifetime.start.p0(i64 8, ptr %3) #18
  %4 = load ptr, ptr %2, align 8
  store ptr %4, ptr %3, align 8
  %5 = load ptr, ptr %3, align 8
  %6 = getelementptr inbounds nuw %struct._ssldecrypt_assoc_t, ptr %5, i32 0, i32 0
  %7 = load ptr, ptr %6, align 8
  call void @g_free(ptr noundef %7)
  %8 = load ptr, ptr %3, align 8
  %9 = getelementptr inbounds nuw %struct._ssldecrypt_assoc_t, ptr %8, i32 0, i32 1
  %10 = load ptr, ptr %9, align 8
  call void @g_free(ptr noundef %10)
  %11 = load ptr, ptr %3, align 8
  %12 = getelementptr inbounds nuw %struct._ssldecrypt_assoc_t, ptr %11, i32 0, i32 2
  %13 = load ptr, ptr %12, align 8
  call void @g_free(ptr noundef %13)
  %14 = load ptr, ptr %3, align 8
  %15 = getelementptr inbounds nuw %struct._ssldecrypt_assoc_t, ptr %14, i32 0, i32 3
  %16 = load ptr, ptr %15, align 8
  call void @g_free(ptr noundef %16)
  %17 = load ptr, ptr %3, align 8
  %18 = getelementptr inbounds nuw %struct._ssldecrypt_assoc_t, ptr %17, i32 0, i32 4
  %19 = load ptr, ptr %18, align 8
  call void @g_free(ptr noundef %19)
  call void @llvm.lifetime.end.p0(i64 8, ptr %3) #18
  ret void
}